target datalayout = "e-m:e-p270:32:32-p271:32:32-p272:64:64-i64:64-i128:128-f80:128-n8:16:32:64-S128"
target triple = "x86_64-pc-linux-gnu"

%struct.ForEachState = type { ptr, i32 }
%struct.List = type { i32, i32, i32, ptr, [0 x %union.ListCell] }
%union.ListCell = type { ptr }
%struct.AclItem = type { i32, i32, i64 }

@.str.1 = private unnamed_addr constant [9 x i8] c"aclchk.c\00", align 1
@.str.175 = private unnamed_addr constant [43 x i8] c"grant options can only be granted to roles\00", align 1
@__func__.merge_acl_with_grant = private unnamed_addr constant [21 x i8] c"merge_acl_with_grant\00", align 1

; Function Attrs: nounwind uwtable
define internal ptr @merge_acl_with_grant(ptr noundef %0, i1 noundef zeroext %1, i1 noundef zeroext %2, i32 noundef %3, ptr noundef %4, i64 noundef %5, i32 noundef %6, i32 noundef %7) #0 {
  %9 = alloca ptr, align 8
  %10 = alloca i8, align 1
  %11 = alloca i8, align 1
  %12 = alloca i32, align 4
  %13 = alloca ptr, align 8
  %14 = alloca i64, align 8
  %15 = alloca i32, align 4
  %16 = alloca i32, align 4
  %17 = alloca i32, align 4
  %18 = alloca ptr, align 8
  %19 = alloca ptr, align 8
  %20 = alloca %struct.ForEachState, align 8
  %21 = alloca %struct.AclItem, align 8
  %22 = alloca ptr, align 8
  store ptr %0, ptr %9, align 8
  %23 = zext i1 %1 to i8
  store i8 %23, ptr %10, align 1
  %24 = zext i1 %2 to i8
  store i8 %24, ptr %11, align 1
  store i32 %3, ptr %12, align 4
  store ptr %4, ptr %13, align 8
  store i64 %5, ptr %14, align 8
  store i32 %6, ptr %15, align 4
  store i32 %7, ptr %16, align 4
  call void @llvm.lifetime.start.p0(i64 4, ptr %17) #9
  call void @llvm.lifetime.start.p0(i64 8, ptr %18) #9
  call void @llvm.lifetime.start.p0(i64 8, ptr %19) #9
  %25 = load i8, ptr %10, align 1, !range !4, !noundef !5
  %26 = trunc i8 %25 to i1
  %27 = select i1 %26, i32 1, i32 2
  store i32 %27, ptr %17, align 4
  %28 = load ptr, ptr %9, align 8
  store ptr %28, ptr %19, align 8
  call void @llvm.lifetime.start.p0(i64 16, ptr %20) #9
  %29 = getelementptr inbounds nuw %struct.ForEachState, ptr %20, i32 0, i32 0
  %30 = load ptr, ptr %13, align 8
  store ptr %30, ptr %29, align 8
  %31 = getelementptr inbounds nuw %struct.ForEachState, ptr %20, i32 0, i32 1
  store i32 0, ptr %31, align 8
  %32 = getelementptr i8, ptr %20, i64 12
  call void @llvm.memset.p0.i64(ptr align 4 %32, i8 0, i64 4, i1 false)
  br label %33

33:                                               ; preds = %119, %8
  %34 = getelementptr inbounds nuw %struct.ForEachState, ptr %20, i32 0, i32 0
  %35 = load ptr, ptr %34, align 8
  %36 = icmp ne ptr %35, null
  br i1 %36, label %37, label %54

37:                                               ; preds = %33
  %38 = getelementptr inbounds nuw %struct.ForEachState, ptr %20, i32 0, i32 1
  %39 = load i32, ptr %38, align 8
  %40 = getelementptr inbounds nuw %struct.ForEachState, ptr %20, i32 0, i32 0
  %41 = load ptr, ptr %40, align 8
  %42 = getelementptr inbounds nuw %struct.List, ptr %41, i32 0, i32 1
  %43 = load i32, ptr %42, align 4
  %44 = icmp slt i32 %39, %43
  br i1 %44, label %45, label %54

45:                                               ; preds = %37
  %46 = getelementptr inbounds nuw %struct.ForEachState, ptr %20, i32 0, i32 0
  %47 = load ptr, ptr %46, align 8
  %48 = getelementptr inbounds nuw %struct.List, ptr %47, i32 0, i32 3
  %49 = load ptr, ptr %48, align 8
  %50 = getelementptr inbounds nuw %struct.ForEachState, ptr %20, i32 0, i32 1
  %51 = load i32, ptr %50, align 8
  %52 = sext i32 %51 to i64
  %53 = getelementptr inbounds %union.ListCell, ptr %49, i64 %52
  store ptr %53, ptr %18, align 8
  br label %55

54:                                               ; preds = %37, %33
  store ptr null, ptr %18, align 8
  br label %55

55:                                               ; preds = %54, %45
  %56 = phi i32 [ 1, %45 ], [ 0, %54 ]
  %57 = icmp ne i32 %56, 0
  br i1 %57, label %59, label %58

58:                                               ; preds = %55
  call void @llvm.lifetime.end.p0(i64 16, ptr %20) #9
  br label %123

59:                                               ; preds = %55
  call void @llvm.lifetime.start.p0(i64 16, ptr %21) #9
  call void @llvm.lifetime.start.p0(i64 8, ptr %22) #9
  %60 = load ptr, ptr %18, align 8
  %61 = load i32, ptr %60, align 8
  %62 = getelementptr inbounds nuw %struct.AclItem, ptr %21, i32 0, i32 0
  store i32 %61, ptr %62, align 8
  %63 = load i8, ptr %10, align 1, !range !4, !noundef !5
  %64 = trunc i8 %63 to i1
  br i1 %64, label %65, label %84

65:                                               ; preds = %59
  %66 = load i8, ptr %11, align 1, !range !4, !noundef !5
  %67 = trunc i8 %66 to i1
  br i1 %67, label %68, label %84

68:                                               ; preds = %65
  %69 = getelementptr inbounds nuw %struct.AclItem, ptr %21, i32 0, i32 0
  %70 = load i32, ptr %69, align 8
  %71 = icmp eq i32 %70, 0
  br i1 %71, label %72, label %84

72:                                               ; preds = %68
  br label %73

73:                                               ; preds = %72
  br i1 true, label %74, label %76

74:                                               ; preds = %73
  %75 = call zeroext i1 @errstart_cold(i32 noundef 21, ptr noundef null) #10
  br i1 %75, label %78, label %81

76:                                               ; preds = %73
  %77 = call zeroext i1 @errstart(i32 noundef 21, ptr noundef null)
  br i1 %77, label %78, label %81

78:                                               ; preds = %76, %74
  %79 = call i32 @errcode(i32 noundef 16910080)
  %80 = call i32 (ptr, ...) @errmsg(ptr noundef @.str.175)
  call void @errfinish(ptr noundef @.str.1, i32 noundef 211, ptr noundef @__func__.merge_acl_with_grant)
  br label %81

81:                                               ; preds = %78, %76, %74
  unreachable

82:                                               ; No predecessors!
  br label %83

83:                                               ; preds = %82
  br label %84

84:                                               ; preds = %83, %68, %65, %59
  %85 = load i32, ptr %15, align 4
  %86 = getelementptr inbounds nuw %struct.AclItem, ptr %21, i32 0, i32 1
  store i32 %85, ptr %86, align 4
  %87 = load i8, ptr %10, align 1, !range !4, !noundef !5
  %88 = trunc i8 %87 to i1
  br i1 %88, label %92, label %89

89:                                               ; preds = %84
  %90 = load i8, ptr %11, align 1, !range !4, !noundef !5
  %91 = trunc i8 %90 to i1
  br i1 %91, label %94, label %92

92:                                               ; preds = %89, %84
  %93 = load i64, ptr %14, align 8
  br label %95

94:                                               ; preds = %89
  br label %95

95:                                               ; preds = %94, %92
  %96 = phi i64 [ %93, %92 ], [ 0, %94 ]
  %97 = and i64 %96, 4294967295
  %98 = load i8, ptr %10, align 1, !range !4, !noundef !5
  %99 = trunc i8 %98 to i1
  br i1 %99, label %100, label %103

100:                                              ; preds = %95
  %101 = load i8, ptr %11, align 1, !range !4, !noundef !5
  %102 = trunc i8 %101 to i1
  br i1 %102, label %103, label %105

103:                                              ; preds = %100, %95
  %104 = load i64, ptr %14, align 8
  br label %106

105:                                              ; preds = %100
  br label %106

106:                                              ; preds = %105, %103
  %107 = phi i64 [ %104, %103 ], [ 0, %105 ]
  %108 = and i64 %107, 4294967295
  %109 = shl i64 %108, 32
  %110 = or i64 %97, %109
  %111 = getelementptr inbounds nuw %struct.AclItem, ptr %21, i32 0, i32 2
  store i64 %110, ptr %111, align 8
  %112 = load ptr, ptr %19, align 8
  %113 = load i32, ptr %17, align 4
  %114 = load i32, ptr %16, align 4
  %115 = load i32, ptr %12, align 4
  %116 = call ptr @aclupdate(ptr noundef %112, ptr noundef %21, i32 noundef %113, i32 noundef %114, i32 noundef %115)
  store ptr %116, ptr %22, align 8
  %117 = load ptr, ptr %19, align 8
  call void @pfree(ptr noundef %117)
  %118 = load ptr, ptr %22, align 8
  store ptr %118, ptr %19, align 8
  call void @llvm.lifetime.end.p0(i64 8, ptr %22) #9
  call void @llvm.lifetime.end.p0(i64 16, ptr %21) #9
  br label %119

119:                                              ; preds = %106
  %120 = getelementptr inbounds nuw %struct.ForEachState, ptr %20, i32 0, i32 1
  %121 = load i32, ptr %120, align 8
  %122 = add i32 %121, 1
  store i32 %122, ptr %120, align 8
  br label %33, !llvm.loop !23

123:                                              ; preds = %58
  %124 = load ptr, ptr %19, align 8
  call void @llvm.lifetime.end.p0(i64 8, ptr %19) #9
  call void @llvm.lifetime.end.p0(i64 8, ptr %18) #9
  call void @llvm.lifetime.end.p0(i64 4, ptr %17) #9
  ret ptr %124
}