; Function Attrs: nounwind uwtable
define internal fastcc ptr @merge_acl_with_grant(ptr noundef %0, i1 noundef zeroext %1, i1 noundef zeroext %2, i32 noundef %3, ptr noundef readonly captures(address_is_null) %4, i64 noundef %5, i32 noundef %6, i32 noundef %7) unnamed_addr #0 {
  %9 = alloca %struct.AclItem, align 8
  %10 = select i1 %1, i32 1, i32 2
  %.not = icmp eq ptr %4, null
  br i1 %.not, label %._crit_edge, label %.lr.ph

.lr.ph:                                           ; preds = %8
  %11 = getelementptr inbounds nuw i8, ptr %4, i64 4
  %12 = getelementptr inbounds nuw i8, ptr %4, i64 16
  %13 = and i1 %1, %2
  %14 = getelementptr inbounds nuw i8, ptr %9, i64 4
  %.not29 = xor i1 %2, true
  %brmerge = or i1 %1, %.not29
  %15 = and i64 %5, 4294967295
  %16 = select i1 %brmerge, i64 %15, i64 0
  %.not30 = xor i1 %1, true
  %brmerge31 = or i1 %2, %.not30
  %17 = shl i64 %5, 32
  %18 = select i1 %brmerge31, i64 %17, i64 0
  %19 = or disjoint i64 %16, %18
  %20 = getelementptr inbounds nuw i8, ptr %9, i64 8
  %21 = load i32, ptr %11, align 4
  %22 = icmp sgt i32 %21, 0
  br i1 %13, label %.lr.ph.split.split, label %.lr.ph.split.us.split

.lr.ph.split.us.split:                            ; preds = %.lr.ph
  br i1 %22, label %.lr.ph54, label %._crit_edge

.lr.ph54:                                         ; preds = %.lr.ph.split.us.split, %.lr.ph54
  %indvars.iv = phi i64 [ %indvars.iv.next, %.lr.ph54 ], [ 0, %.lr.ph.split.us.split ]
  %.02536.us52 = phi ptr [ %26, %.lr.ph54 ], [ %0, %.lr.ph.split.us.split ]
  %23 = load ptr, ptr %12, align 8
  %24 = getelementptr inbounds nuw %union.ListCell, ptr %23, i64 %indvars.iv
  call void @llvm.lifetime.start.p0(i64 16, ptr nonnull %9) #9
  %25 = load i32, ptr %24, align 8
  store i32 %25, ptr %9, align 8
  store i32 %6, ptr %14, align 4
  store i64 %19, ptr %20, align 8
  %26 = call ptr @aclupdate(ptr noundef %.02536.us52, ptr noundef nonnull %9, i32 noundef %10, i32 noundef %7, i32 noundef %3) #9
  call void @pfree(ptr noundef %.02536.us52) #9
  call void @llvm.lifetime.end.p0(i64 16, ptr nonnull %9) #9
  %indvars.iv.next = add nuw nsw i64 %indvars.iv, 1
  %27 = load i32, ptr %11, align 4
  %28 = sext i32 %27 to i64
  %29 = icmp slt i64 %indvars.iv.next, %28
  br i1 %29, label %.lr.ph54, label %._crit_edge

.lr.ph.split.split:                               ; preds = %.lr.ph
  br i1 %22, label %.lr.ph48, label %._crit_edge

._crit_edge:                                      ; preds = %.lr.ph54, %37, %.lr.ph.split.us.split, %.lr.ph.split.split, %8
  %.025.lcssa = phi ptr [ %0, %8 ], [ %0, %.lr.ph.split.us.split ], [ %0, %.lr.ph.split.split ], [ %38, %37 ], [ %26, %.lr.ph54 ]
  ret ptr %.025.lcssa

.lr.ph48:                                         ; preds = %.lr.ph.split.split, %37
  %indvars.iv59 = phi i64 [ %indvars.iv.next60, %37 ], [ 0, %.lr.ph.split.split ]
  %.0253646 = phi ptr [ %38, %37 ], [ %0, %.lr.ph.split.split ]
  %30 = load ptr, ptr %12, align 8
  %31 = getelementptr inbounds nuw %union.ListCell, ptr %30, i64 %indvars.iv59
  call void @llvm.lifetime.start.p0(i64 16, ptr nonnull %9) #9
  %32 = load i32, ptr %31, align 8
  store i32 %32, ptr %9, align 8
  %33 = icmp eq i32 %32, 0
  br i1 %33, label %.split.us, label %37

.split.us:                                        ; preds = %.lr.ph48
  %34 = call zeroext i1 @errstart_cold(i32 noundef 21, ptr noundef null) #10
  call void @llvm.assume(i1 %34)
  %35 = call i32 @errcode(i32 noundef 16910080) #9
  %36 = call i32 (ptr, ...) @errmsg(ptr noundef nonnull @.str.175) #9
  call void @errfinish(ptr noundef nonnull @.str.1, i32 noundef 211, ptr noundef nonnull @__func__.merge_acl_with_grant) #9
  unreachable

37:                                               ; preds = %.lr.ph48
  store i32 %6, ptr %14, align 4
  store i64 %19, ptr %20, align 8
  %38 = call ptr @aclupdate(ptr noundef %.0253646, ptr noundef nonnull %9, i32 noundef %10, i32 noundef %7, i32 noundef %3) #9
  call void @pfree(ptr noundef %.0253646) #9
  call void @llvm.lifetime.end.p0(i64 16, ptr nonnull %9) #9
  %indvars.iv.next60 = add nuw nsw i64 %indvars.iv59, 1
  %39 = load i32, ptr %11, align 4
  %40 = sext i32 %39 to i64
  %41 = icmp slt i64 %indvars.iv.next60, %40
  br i1 %41, label %.lr.ph48, label %._crit_edge
}